; ModuleID = '57/1120.c'
source_filename = "57/1120.c"
target datalayout = "e-m:e-p270:32:32-p271:32:32-p272:64:64-i64:64-f80:128-n8:16:32:64-S128"
target triple = "x86_64-pc-linux-gnu"

@.str = private unnamed_addr constant [3 x i8] c"%d\00", align 1
@.str.1 = private unnamed_addr constant [3 x i8] c"er\00", align 1
@.str.2 = private unnamed_addr constant [3 x i8] c"ly\00", align 1
@.str.3 = private unnamed_addr constant [4 x i8] c"ing\00", align 1
@__const.main.c = private unnamed_addr constant [3 x i8*] [i8* getelementptr inbounds ([3 x i8], [3 x i8]* @.str.1, i32 0, i32 0), i8* getelementptr inbounds ([3 x i8], [3 x i8]* @.str.2, i32 0, i32 0), i8* getelementptr inbounds ([4 x i8], [4 x i8]* @.str.3, i32 0, i32 0)], align 16
@.str.4 = private unnamed_addr constant [3 x i8] c"%s\00", align 1
@.str.5 = private unnamed_addr constant [4 x i8] c"%s\0A\00", align 1

; Function Attrs: noinline nounwind uwtable
define dso_local i32 @main() #0 {
  %1 = alloca i32, align 4
  %2 = alloca i32, align 4
  %3 = alloca [51 x i8], align 16
  %4 = alloca [3 x i8*], align 16
  %5 = alloca i32, align 4
  %6 = alloca i32, align 4
  %7 = alloca i32, align 4
  %8 = alloca i32, align 4
  store i32 0, i32* %1, align 4
  %9 = call i32 (i8*, ...) @__isoc99_scanf(i8* getelementptr inbounds ([3 x i8], [3 x i8]* @.str, i64 0, i64 0), i32* %2)
  %10 = bitcast [3 x i8*]* %4 to i8*
  call void @llvm.memcpy.p0i8.p0i8.i64(i8* align 16 %10, i8* align 16 bitcast ([3 x i8*]* @__const.main.c to i8*), i64 24, i1 false)
  store i32 0, i32* %5, align 4
  br label %11

11:                                               ; preds = %58, %0
  %12 = load i32, i32* %5, align 4
  %13 = load i32, i32* %2, align 4
  %14 = icmp slt i32 %12, %13
  br i1 %14, label %15, label %61

15:                                               ; preds = %11
  %16 = getelementptr inbounds [51 x i8], [51 x i8]* %3, i64 0, i64 0
  %17 = call i32 (i8*, ...) @__isoc99_scanf(i8* getelementptr inbounds ([3 x i8], [3 x i8]* @.str.4, i64 0, i64 0), i8* %16)
  store i32 0, i32* %6, align 4
  br label %18

18:                                               ; preds = %54, %15
  %19 = load i32, i32* %6, align 4
  %20 = icmp slt i32 %19, 3
  br i1 %20, label %21, label %57

21:                                               ; preds = %18
  %22 = getelementptr inbounds [51 x i8], [51 x i8]* %3, i64 0, i64 0
  %23 = call i64 @strlen(i8* %22) #4
  %24 = trunc i64 %23 to i32
  store i32 %24, i32* %7, align 4
  %25 = load i32, i32* %6, align 4
  %26 = sext i32 %25 to i64
  %27 = getelementptr inbounds [3 x i8*], [3 x i8*]* %4, i64 0, i64 %26
  %28 = load i8*, i8** %27, align 8
  %29 = call i64 @strlen(i8* %28) #4
  %30 = trunc i64 %29 to i32
  store i32 %30, i32* %8, align 4
  %31 = load i32, i32* %6, align 4
  %32 = sext i32 %31 to i64
  %33 = getelementptr inbounds [3 x i8*], [3 x i8*]* %4, i64 0, i64 %32
  %34 = load i8*, i8** %33, align 8
  %35 = getelementptr inbounds [51 x i8], [51 x i8]* %3, i64 0, i64 0
  %36 = load i32, i32* %7, align 4
  %37 = sext i32 %36 to i64
  %38 = getelementptr inbounds i8, i8* %35, i64 %37
  %39 = load i32, i32* %8, align 4
  %40 = sext i32 %39 to i64
  %41 = sub i64 0, %40
  %42 = getelementptr inbounds i8, i8* %38, i64 %41
  %43 = call i32 @strcmp(i8* %34, i8* %42) #4
  %44 = icmp eq i32 %43, 0
  br i1 %44, label %45, label %53

45:                                               ; preds = %21
  %46 = load i32, i32* %7, align 4
  %47 = load i32, i32* %8, align 4
  %48 = sub nsw i32 %46, %47
  %49 = sext i32 %48 to i64
  %50 = getelementptr inbounds [51 x i8], [51 x i8]* %3, i64 0, i64 %49
  store i8 0, i8* %50, align 1
  %51 = getelementptr inbounds [51 x i8], [51 x i8]* %3, i64 0, i64 0
  %52 = call i32 (i8*, ...) @printf(i8* getelementptr inbounds ([4 x i8], [4 x i8]* @.str.5, i64 0, i64 0), i8* %51)
  br label %57

53:                                               ; preds = %21
  br label %54

54:                                               ; preds = %53
  %55 = load i32, i32* %6, align 4
  %56 = add nsw i32 %55, 1
  store i32 %56, i32* %6, align 4
  br label %18

57:                                               ; preds = %45, %18
  br label %58

58:                                               ; preds = %57
  %59 = load i32, i32* %5, align 4
  %60 = add nsw i32 %59, 1
  store i32 %60, i32* %5, align 4
  br label %11

61:                                               ; preds = %11
  %62 = load i32, i32* %1, align 4
  ret i32 %62
}

declare dso_local i32 @__isoc99_scanf(i8*, ...) #1

; Function Attrs: argmemonly nounwind willreturn
declare void @llvm.memcpy.p0i8.p0i8.i64(i8* noalias nocapture writeonly, i8* noalias nocapture readonly, i64, i1 immarg) #2

; Function Attrs: nounwind readonly
declare dso_local i64 @strlen(i8*) #3

; Function Attrs: nounwind readonly
declare dso_local i32 @strcmp(i8*, i8*) #3

declare dso_local i32 @printf(i8*, ...) #1


!llvm.module.flags = !{!0}
!llvm.ident = !{!1}

!0 = !{i32 1, !"wchar_size", i32 4}
!1 = !{!"clang version 10.0.0-4ubuntu1 "}
